target datalayout = "e-m:e-p270:32:32-p271:32:32-p272:64:64-i64:64-i128:128-f80:128-n8:16:32:64-S128"
target triple = "x86_64-pc-linux-gnu"

%"class.sat::ddfw_wrapper" = type { %"class.sat::i_local_search", %"class.sat::ddfw", ptr, i32, i64 }
%"class.sat::i_local_search" = type { ptr }
%"class.sat::ddfw" = type <{ %"struct.sat::ddfw::config", %class.reslimit, %class.vector.1, %class.svector.2, %class.svector.4, %class.svector.6, %class.svector.6, %class.svector.8, i32, [4 x i8], %class.vector.10, %class.svector.11, %class.svector.11, i32, i32, i32, [4 x i8], %class.indexed_uint_set, %class.indexed_uint_set, %class.random_gen, [4 x i8], i64, i32, i32, i32, i32, i64, i64, i64, i64, i64, i32, i32, %class.u_map, %class.stopwatch, %class.svector.11, i8, [7 x i8], %class.scoped_ptr, %"class.std::function", i32, [4 x i8], %class.tracked_uint_set, %class.svector.11, i8, i8, [6 x i8] }>
%"struct.sat::ddfw::config" = type { i32, i32, i32, i32, i32, i32, double }
%class.reslimit = type { %"struct.std::atomic", i8, i64, i64, %class.svector, %class.ptr_vector }
%"struct.std::atomic" = type { %"struct.std::__atomic_base" }
%"struct.std::__atomic_base" = type { i32 }
%class.svector = type { %class.vector }
%class.vector = type { ptr }
%class.ptr_vector = type { %class.vector.0 }
%class.vector.0 = type { ptr }
%class.vector.1 = type { ptr }
%class.svector.2 = type { %class.vector.3 }
%class.vector.3 = type { ptr }
%class.svector.4 = type { %class.vector.5 }
%class.vector.5 = type { ptr }
%class.svector.6 = type { %class.vector.7 }
%class.vector.7 = type { ptr }
%class.svector.8 = type { %class.vector.9 }
%class.vector.9 = type { ptr }
%class.vector.10 = type { ptr }
%class.indexed_uint_set = type { i32, %class.svector.11, %class.svector.11 }
%class.random_gen = type { i32 }
%class.u_map = type { %class.map }
%class.map = type { %class.table2map }
%class.table2map = type { %class.core_hashtable }
%class.core_hashtable = type <{ ptr, i32, i32, i32, [4 x i8] }>
%class.stopwatch = type <{ %"class.std::chrono::time_point", %"class.std::chrono::duration", i8, [7 x i8] }>
%"class.std::chrono::time_point" = type { %"class.std::chrono::duration" }
%"class.std::chrono::duration" = type { i64 }
%class.scoped_ptr = type { ptr }
%"class.std::function" = type { %"class.std::_Function_base", ptr }
%"class.std::_Function_base" = type { %"union.std::_Any_data", ptr }
%"union.std::_Any_data" = type { %"union.std::_Nocopy_types" }
%"union.std::_Nocopy_types" = type { { i64, i64 } }
%class.tracked_uint_set = type { %class.svector.13, %class.svector.11 }
%class.svector.13 = type { %class.vector.14 }
%class.vector.14 = type { ptr }
%class.svector.11 = type { %class.vector.12 }
%class.vector.12 = type { ptr }
%class.vector.18 = type { ptr }
%"struct.sat::ddfw::var_info" = type { i8, double, double, i32, i32, %class.ema }
%class.ema = type { double, double, double, i32, i32 }

; Function Attrs: mustprogress nounwind uwtable
define linkonce_odr hidden noundef nonnull align 8 dereferenceable(64) ptr @_ZN6vectorIN3sat4ddfw8var_infoELb0EjEixEj(ptr noundef nonnull align 8 dereferenceable(8) %0, i32 noundef %1) #6 comdat align 2 {
  %3 = alloca ptr, align 8
  %4 = alloca i32, align 4
  store ptr %0, ptr %3, align 8, !tbaa !168
  store i32 %1, ptr %4, align 4, !tbaa !8
  %5 = load ptr, ptr %3, align 8
  %6 = getelementptr inbounds nuw %class.vector.5, ptr %5, i32 0, i32 0
  %7 = load ptr, ptr %6, align 8, !tbaa !170
  %8 = load i32, ptr %4, align 4, !tbaa !8
  %9 = zext i32 %8 to i64
  %10 = getelementptr inbounds nuw %"struct.sat::ddfw::var_info", ptr %7, i64 %9
  ret ptr %10
}

; Function Attrs: inlinehint mustprogress nounwind uwtable
define linkonce_odr hidden noundef nonnull align 4 dereferenceable(4) ptr @_ZN3sat4ddfw10make_countEj(ptr noundef nonnull align 8 dereferenceable(434) %0, i32 noundef %1) #8 comdat align 2 {
  %3 = alloca ptr, align 8
  %4 = alloca i32, align 4
  store ptr %0, ptr %3, align 8, !tbaa !103
  store i32 %1, ptr %4, align 4, !tbaa !8
  %5 = load ptr, ptr %3, align 8
  %6 = getelementptr inbounds nuw %"class.sat::ddfw", ptr %5, i32 0, i32 4
  %7 = load i32, ptr %4, align 4, !tbaa !8
  %8 = call noundef nonnull align 8 dereferenceable(64) ptr @_ZN6vectorIN3sat4ddfw8var_infoELb0EjEixEj(ptr noundef nonnull align 8 dereferenceable(8) %6, i32 noundef %7)
  %9 = getelementptr inbounds nuw %"struct.sat::ddfw::var_info", ptr %8, i32 0, i32 3
  ret ptr %9
}

; Function Attrs: mustprogress nounwind uwtable
define linkonce_odr hidden void @_ZN3sat4ddfw10set_rewardEjd(ptr noundef nonnull align 8 dereferenceable(434) %0, i32 noundef %1, double noundef %2) #6 comdat align 2 {
  %4 = alloca ptr, align 8
  %5 = alloca i32, align 4
  %6 = alloca double, align 8
  store ptr %0, ptr %4, align 8, !tbaa !103
  store i32 %1, ptr %5, align 4, !tbaa !8
  store double %2, ptr %6, align 8, !tbaa !105
  %7 = load ptr, ptr %4, align 8
  %8 = load double, ptr %6, align 8, !tbaa !105
  %9 = getelementptr inbounds nuw %"class.sat::ddfw", ptr %7, i32 0, i32 4
  %10 = load i32, ptr %5, align 4, !tbaa !8
  %11 = call noundef nonnull align 8 dereferenceable(64) ptr @_ZN6vectorIN3sat4ddfw8var_infoELb0EjEixEj(ptr noundef nonnull align 8 dereferenceable(8) %9, i32 noundef %10)
  %12 = getelementptr inbounds nuw %"struct.sat::ddfw::var_info", ptr %11, i32 0, i32 1
  store double %8, ptr %12, align 8, !tbaa !106
  ret void
}

; Function Attrs: inlinehint mustprogress uwtable
define linkonce_odr hidden noundef nonnull align 1 dereferenceable(1) ptr @_ZN3sat4ddfw5valueEj(ptr noundef nonnull align 8 dereferenceable(434) %0, i32 noundef %1) #7 comdat align 2 {
  %3 = alloca ptr, align 8
  %4 = alloca i32, align 4
  store ptr %0, ptr %3, align 8, !tbaa !103
  store i32 %1, ptr %4, align 4, !tbaa !8
  %5 = load ptr, ptr %3, align 8
  %6 = getelementptr inbounds nuw %"class.sat::ddfw", ptr %5, i32 0, i32 4
  %7 = load i32, ptr %4, align 4, !tbaa !8
  %8 = call noundef nonnull align 8 dereferenceable(64) ptr @_ZN6vectorIN3sat4ddfw8var_infoELb0EjEixEj(ptr noundef nonnull align 8 dereferenceable(8) %6, i32 noundef %7)
  %9 = getelementptr inbounds nuw %"struct.sat::ddfw::var_info", ptr %8, i32 0, i32 0
  ret ptr %9
}

; Function Attrs: mustprogress nounwind uwtable
define linkonce_odr hidden noundef nonnull align 1 dereferenceable(1) ptr @_ZNK6vectorIbLb0EjEixEj(ptr noundef nonnull align 8 dereferenceable(8) %0, i32 noundef %1) #6 comdat align 2 {
  %3 = alloca ptr, align 8
  %4 = alloca i32, align 4
  store ptr %0, ptr %3, align 8, !tbaa !98
  store i32 %1, ptr %4, align 4, !tbaa !8
  %5 = load ptr, ptr %3, align 8
  %6 = getelementptr inbounds nuw %class.vector.18, ptr %5, i32 0, i32 0
  %7 = load ptr, ptr %6, align 8, !tbaa !100
  %8 = load i32, ptr %4, align 4, !tbaa !8
  %9 = zext i32 %8 to i64
  %10 = getelementptr inbounds nuw i8, ptr %7, i64 %9
  ret ptr %10
}

; Function Attrs: mustprogress nounwind uwtable
define linkonce_odr hidden noundef i32 @_ZNK6vectorIbLb0EjE4sizeEv(ptr noundef nonnull align 8 dereferenceable(8) %0) #6 comdat align 2 {
  %2 = alloca i32, align 4
  %3 = alloca ptr, align 8
  store ptr %0, ptr %3, align 8, !tbaa !98
  %4 = load ptr, ptr %3, align 8
  %5 = getelementptr inbounds nuw %class.vector.18, ptr %4, i32 0, i32 0
  %6 = load ptr, ptr %5, align 8, !tbaa !100
  %7 = icmp eq ptr %6, null
  br i1 %7, label %8, label %9

8:                                                ; preds = %1
  store i32 0, ptr %2, align 4
  br label %14

9:                                                ; preds = %1
  %10 = getelementptr inbounds nuw %class.vector.18, ptr %4, i32 0, i32 0
  %11 = load ptr, ptr %10, align 8, !tbaa !100
  %12 = getelementptr inbounds i32, ptr %11, i64 -1
  %13 = load i32, ptr %12, align 4, !tbaa !8
  store i32 %13, ptr %2, align 4
  br label %14

14:                                               ; preds = %9, %8
  %15 = load i32, ptr %2, align 4
  ret i32 %15
}

; Function Attrs: mustprogress uwtable
define hidden void @_ZN3sat12ddfw_wrapper6reinitERNS_6solverERK7svectorIbjE(ptr noundef nonnull align 8 dereferenceable(472) %0, ptr noundef nonnull align 8 dereferenceable(4264) %1, ptr noundef nonnull align 8 dereferenceable(8) %2) unnamed_addr #4 align 2 {
  %4 = alloca ptr, align 8
  %5 = alloca ptr, align 8
  %6 = alloca ptr, align 8
  %7 = alloca i32, align 4
  store ptr %0, ptr %4, align 8, !tbaa !3
  store ptr %1, ptr %5, align 8, !tbaa !87
  store ptr %2, ptr %6, align 8, !tbaa !89
  %8 = load ptr, ptr %4, align 8
  %9 = load ptr, ptr %5, align 8, !tbaa !87
  %10 = load ptr, ptr %8, align 8, !tbaa !91
  %11 = getelementptr inbounds ptr, ptr %10, i64 2
  %12 = load ptr, ptr %11, align 8
  call void %12(ptr noundef nonnull align 8 dereferenceable(472) %8, ptr noundef nonnull align 8 dereferenceable(4264) %9)
  %13 = getelementptr inbounds nuw %"class.sat::ddfw_wrapper", ptr %8, i32 0, i32 1
  call void @_ZN3sat4ddfw15add_assumptionsEv(ptr noundef nonnull align 8 dereferenceable(434) %13)
  call void @llvm.lifetime.start.p0(i64 4, ptr %7) #3
  store i32 0, ptr %7, align 4, !tbaa !8
  br label %14

14:                                               ; preds = %35, %3
  %15 = load i32, ptr %7, align 4, !tbaa !8
  %16 = load ptr, ptr %6, align 8, !tbaa !89
  %17 = call noundef i32 @_ZNK6vectorIbLb0EjE4sizeEv(ptr noundef nonnull align 8 dereferenceable(8) %16)
  %18 = icmp ult i32 %15, %17
  br i1 %18, label %20, label %19

19:                                               ; preds = %14
  call void @llvm.lifetime.end.p0(i64 4, ptr %7) #3
  br label %38

20:                                               ; preds = %14
  %21 = load ptr, ptr %6, align 8, !tbaa !89
  %22 = load i32, ptr %7, align 4, !tbaa !8
  %23 = call noundef nonnull align 1 dereferenceable(1) ptr @_ZNK6vectorIbLb0EjEixEj(ptr noundef nonnull align 8 dereferenceable(8) %21, i32 noundef %22)
  %24 = load i8, ptr %23, align 1, !tbaa !93, !range !94, !noundef !95
  %25 = trunc i8 %24 to i1
  %26 = getelementptr inbounds nuw %"class.sat::ddfw_wrapper", ptr %8, i32 0, i32 1
  %27 = load i32, ptr %7, align 4, !tbaa !8
  %28 = call noundef nonnull align 1 dereferenceable(1) ptr @_ZN3sat4ddfw5valueEj(ptr noundef nonnull align 8 dereferenceable(434) %26, i32 noundef %27)
  %29 = zext i1 %25 to i8
  store i8 %29, ptr %28, align 1, !tbaa !93
  %30 = getelementptr inbounds nuw %"class.sat::ddfw_wrapper", ptr %8, i32 0, i32 1
  %31 = load i32, ptr %7, align 4, !tbaa !8
  call void @_ZN3sat4ddfw10set_rewardEjd(ptr noundef nonnull align 8 dereferenceable(434) %30, i32 noundef %31, double noundef 0.000000e+00)
  %32 = getelementptr inbounds nuw %"class.sat::ddfw_wrapper", ptr %8, i32 0, i32 1
  %33 = load i32, ptr %7, align 4, !tbaa !8
  %34 = call noundef nonnull align 4 dereferenceable(4) ptr @_ZN3sat4ddfw10make_countEj(ptr noundef nonnull align 8 dereferenceable(434) %32, i32 noundef %33)
  store i32 0, ptr %34, align 4, !tbaa !8
  br label %35

35:                                               ; preds = %20
  %36 = load i32, ptr %7, align 4, !tbaa !8
  %37 = add i32 %36, 1
  store i32 %37, ptr %7, align 4, !tbaa !8
  br label %14, !llvm.loop !96

38:                                               ; preds = %19
  %39 = getelementptr inbounds nuw %"class.sat::ddfw_wrapper", ptr %8, i32 0, i32 1
  call void @_ZN3sat4ddfw16init_clause_dataEv(ptr noundef nonnull align 8 dereferenceable(434) %39)
  %40 = getelementptr inbounds nuw %"class.sat::ddfw_wrapper", ptr %8, i32 0, i32 1
  %41 = call noundef zeroext i1 @_ZN3sat4ddfw16flatten_use_listEv(ptr noundef nonnull align 8 dereferenceable(434) %40)
  ret void
}