; Function Attrs: mustprogress uwtable
define hidden void @_ZN3sat12ddfw_wrapper6reinitERNS_6solverERK7svectorIbjE(ptr noundef nonnull align 8 dereferenceable(472) %0, ptr noundef nonnull align 8 dereferenceable(4264) %1, ptr noundef nonnull readonly align 8 captures(none) dereferenceable(8) %2) unnamed_addr #3 align 2 {
  %4 = load ptr, ptr %0, align 8, !tbaa !69
  %5 = getelementptr inbounds nuw i8, ptr %4, i64 16
  %6 = load ptr, ptr %5, align 8
  tail call void %6(ptr noundef nonnull align 8 dereferenceable(472) %0, ptr noundef nonnull align 8 dereferenceable(4264) %1)
  %7 = getelementptr inbounds nuw i8, ptr %0, i64 8
  tail call void @_ZN3sat4ddfw15add_assumptionsEv(ptr noundef nonnull align 8 dereferenceable(434) %7)
  %8 = load ptr, ptr %2, align 8, !tbaa !71
  %9 = icmp eq ptr %8, null
  %10 = getelementptr inbounds i8, ptr %8, i64 -4
  %11 = getelementptr inbounds nuw i8, ptr %0, i64 96
  %12 = load ptr, ptr %11, align 8
  br i1 %9, label %.split10.us, label %.split

.split:                                           ; preds = %3
  %13 = load i32, ptr %10, align 4, !tbaa !74
  %.not = icmp eq i32 %13, 0
  br i1 %.not, label %.split10.us, label %_ZNK6vectorIbLb0EjE4sizeEv.exit

.split10.us:                                      ; preds = %_ZNK6vectorIbLb0EjE4sizeEv.exit, %.split, %3
  tail call void @_ZN3sat4ddfw16init_clause_dataEv(ptr noundef nonnull align 8 dereferenceable(434) %7)
  %14 = tail call noundef zeroext i1 @_ZN3sat4ddfw16flatten_use_listEv(ptr noundef nonnull align 8 dereferenceable(434) %7)
  ret void

_ZNK6vectorIbLb0EjE4sizeEv.exit:                  ; preds = %.split, %_ZNK6vectorIbLb0EjE4sizeEv.exit
  %indvars.iv = phi i64 [ %indvars.iv.next, %_ZNK6vectorIbLb0EjE4sizeEv.exit ], [ 0, %.split ]
  %15 = getelementptr inbounds nuw i8, ptr %8, i64 %indvars.iv
  %16 = load i8, ptr %15, align 1, !tbaa !75, !range !76, !noundef !77
  %17 = getelementptr inbounds nuw %"struct.sat::ddfw::var_info", ptr %12, i64 %indvars.iv
  store i8 %16, ptr %17, align 1, !tbaa !75
  %18 = getelementptr inbounds nuw %"struct.sat::ddfw::var_info", ptr %12, i64 %indvars.iv, i32 1
  store double 0.000000e+00, ptr %18, align 8, !tbaa !78
  %19 = getelementptr inbounds nuw %"struct.sat::ddfw::var_info", ptr %12, i64 %indvars.iv, i32 3
  store i32 0, ptr %19, align 4, !tbaa !74
  %indvars.iv.next = add nuw nsw i64 %indvars.iv, 1
  %20 = load i32, ptr %10, align 4, !tbaa !74
  %21 = zext i32 %20 to i64
  %22 = icmp samesign ult i64 %indvars.iv.next, %21
  br i1 %22, label %_ZNK6vectorIbLb0EjE4sizeEv.exit, label %.split10.us, !llvm.loop !81
}